target datalayout = "e-m:e-p270:32:32-p271:32:32-p272:64:64-i64:64-i128:128-f80:128-n8:16:32:64-S128"
target triple = "x86_64-pc-linux-gnu"

%struct.curve448_scalar_s = type { [7 x i64] }
%struct.curve448_point_s = type { [1 x %struct.gf_s], [1 x %struct.gf_s], [1 x %struct.gf_s], [1 x %struct.gf_s] }
%struct.gf_s = type { [8 x i64] }

@ossl_curve448_precomputed_base = external global ptr, align 8

; Function Attrs: nounwind uwtable
define internal void @clamp(ptr noundef %0) #0 {
  %2 = alloca ptr, align 8
  store ptr %0, ptr %2, align 8, !tbaa !8
  %3 = load ptr, ptr %2, align 8, !tbaa !8
  %4 = getelementptr inbounds i8, ptr %3, i64 0
  %5 = load i8, ptr %4, align 1, !tbaa !22
  %6 = zext i8 %5 to i32
  %7 = and i32 %6, -4
  %8 = trunc i32 %7 to i8
  store i8 %8, ptr %4, align 1, !tbaa !22
  %9 = load ptr, ptr %2, align 8, !tbaa !8
  %10 = getelementptr inbounds i8, ptr %9, i64 56
  store i8 0, ptr %10, align 1, !tbaa !22
  %11 = load ptr, ptr %2, align 8, !tbaa !8
  %12 = getelementptr inbounds i8, ptr %11, i64 55
  %13 = load i8, ptr %12, align 1, !tbaa !22
  %14 = zext i8 %13 to i32
  %15 = or i32 %14, 128
  %16 = trunc i32 %15 to i8
  store i8 %16, ptr %12, align 1, !tbaa !22
  ret void
}

; Function Attrs: nounwind uwtable
define i32 @ossl_c448_ed448_sign(ptr noundef %0, ptr noundef %1, ptr noundef %2, ptr noundef %3, ptr noundef %4, i64 noundef %5, i8 noundef zeroext %6, ptr noundef %7, i64 noundef %8, ptr noundef %9) #0 {
  %11 = alloca i32, align 4
  %12 = alloca ptr, align 8
  %13 = alloca ptr, align 8
  %14 = alloca ptr, align 8
  %15 = alloca ptr, align 8
  %16 = alloca ptr, align 8
  %17 = alloca i64, align 8
  %18 = alloca i8, align 1
  %19 = alloca ptr, align 8
  %20 = alloca i64, align 8
  %21 = alloca ptr, align 8
  %22 = alloca [1 x %struct.curve448_scalar_s], align 16
  %23 = alloca ptr, align 8
  %24 = alloca i32, align 4
  %25 = alloca [1 x %struct.curve448_scalar_s], align 16
  %26 = alloca [57 x i8], align 16
  %27 = alloca i32, align 4
  %28 = alloca [1 x %struct.curve448_scalar_s], align 16
  %29 = alloca i32, align 4
  %30 = alloca [114 x i8], align 16
  %31 = alloca [114 x i8], align 16
  %32 = alloca [1 x %struct.curve448_scalar_s], align 16
  %33 = alloca [1 x %struct.curve448_point_s], align 16
  %34 = alloca [114 x i8], align 16
  store ptr %0, ptr %12, align 8, !tbaa !3
  store ptr %1, ptr %13, align 8, !tbaa !8
  store ptr %2, ptr %14, align 8, !tbaa !8
  store ptr %3, ptr %15, align 8, !tbaa !8
  store ptr %4, ptr %16, align 8, !tbaa !8
  store i64 %5, ptr %17, align 8, !tbaa !10
  store i8 %6, ptr %18, align 1, !tbaa !22
  store ptr %7, ptr %19, align 8, !tbaa !8
  store i64 %8, ptr %20, align 8, !tbaa !10
  store ptr %9, ptr %21, align 8, !tbaa !8
  call void @llvm.lifetime.start.p0(i64 56, ptr %22) #6
  call void @llvm.lifetime.start.p0(i64 8, ptr %23) #6
  %35 = call ptr @EVP_MD_CTX_new()
  store ptr %35, ptr %23, align 8, !tbaa !12
  call void @llvm.lifetime.start.p0(i64 4, ptr %24) #6
  store i32 0, ptr %24, align 4, !tbaa !16
  call void @llvm.lifetime.start.p0(i64 56, ptr %25) #6
  call void @llvm.lifetime.start.p0(i64 57, ptr %26) #6
  call void @llvm.memset.p0.i64(ptr align 16 %26, i8 0, i64 57, i1 false)
  call void @llvm.lifetime.start.p0(i64 4, ptr %27) #6
  call void @llvm.lifetime.start.p0(i64 56, ptr %28) #6
  %36 = load ptr, ptr %23, align 8, !tbaa !12
  %37 = icmp eq ptr %36, null
  br i1 %37, label %38, label %39

38:                                               ; preds = %10
  store i32 0, ptr %11, align 4
  store i32 1, ptr %29, align 4
  br label %164

39:                                               ; preds = %10
  call void @llvm.lifetime.start.p0(i64 114, ptr %30) #6
  %40 = load ptr, ptr %12, align 8, !tbaa !3
  %41 = getelementptr inbounds [114 x i8], ptr %30, i64 0, i64 0
  %42 = load ptr, ptr %14, align 8, !tbaa !8
  %43 = load ptr, ptr %21, align 8, !tbaa !8
  %44 = call i32 @oneshot_hash(ptr noundef %40, ptr noundef %41, i64 noundef 114, ptr noundef %42, i64 noundef 57, ptr noundef %43)
  %45 = icmp ne i32 %44, 0
  br i1 %45, label %47, label %46

46:                                               ; preds = %39
  store i32 2, ptr %29, align 4
  br label %75

47:                                               ; preds = %39
  %48 = getelementptr inbounds [114 x i8], ptr %30, i64 0, i64 0
  call void @clamp(ptr noundef %48)
  %49 = getelementptr inbounds [1 x %struct.curve448_scalar_s], ptr %22, i64 0, i64 0
  %50 = getelementptr inbounds [114 x i8], ptr %30, i64 0, i64 0
  call void @ossl_curve448_scalar_decode_long(ptr noundef %49, ptr noundef %50, i64 noundef 57)
  %51 = load ptr, ptr %12, align 8, !tbaa !3
  %52 = load ptr, ptr %23, align 8, !tbaa !12
  %53 = load i8, ptr %18, align 1, !tbaa !22
  %54 = load ptr, ptr %19, align 8, !tbaa !8
  %55 = load i64, ptr %20, align 8, !tbaa !10
  %56 = load ptr, ptr %21, align 8, !tbaa !8
  %57 = call i32 @hash_init_with_dom(ptr noundef %51, ptr noundef %52, i8 noundef zeroext %53, i8 noundef zeroext 0, ptr noundef %54, i64 noundef %55, ptr noundef %56)
  %58 = icmp ne i32 %57, 0
  br i1 %58, label %59, label %71

59:                                               ; preds = %47
  %60 = load ptr, ptr %23, align 8, !tbaa !12
  %61 = getelementptr inbounds [114 x i8], ptr %30, i64 0, i64 0
  %62 = getelementptr inbounds i8, ptr %61, i64 57
  %63 = call i32 @EVP_DigestUpdate(ptr noundef %60, ptr noundef %62, i64 noundef 57)
  %64 = icmp ne i32 %63, 0
  br i1 %64, label %65, label %71

65:                                               ; preds = %59
  %66 = load ptr, ptr %23, align 8, !tbaa !12
  %67 = load ptr, ptr %16, align 8, !tbaa !8
  %68 = load i64, ptr %17, align 8, !tbaa !10
  %69 = call i32 @EVP_DigestUpdate(ptr noundef %66, ptr noundef %67, i64 noundef %68)
  %70 = icmp ne i32 %69, 0
  br i1 %70, label %73, label %71

71:                                               ; preds = %65, %59, %47
  %72 = getelementptr inbounds [114 x i8], ptr %30, i64 0, i64 0
  call void @OPENSSL_cleanse(ptr noundef %72, i64 noundef 114)
  store i32 2, ptr %29, align 4
  br label %75

73:                                               ; preds = %65
  %74 = getelementptr inbounds [114 x i8], ptr %30, i64 0, i64 0
  call void @OPENSSL_cleanse(ptr noundef %74, i64 noundef 114)
  store i32 0, ptr %29, align 4
  br label %75

75:                                               ; preds = %71, %46, %73
  call void @llvm.lifetime.end.p0(i64 114, ptr %30) #6
  %76 = load i32, ptr %29, align 4
  switch i32 %76, label %164 [
    i32 0, label %77
    i32 2, label %161
  ]

77:                                               ; preds = %75
  call void @llvm.lifetime.start.p0(i64 114, ptr %31) #6
  %78 = load ptr, ptr %23, align 8, !tbaa !12
  %79 = getelementptr inbounds [114 x i8], ptr %31, i64 0, i64 0
  %80 = call i32 @EVP_DigestFinalXOF(ptr noundef %78, ptr noundef %79, i64 noundef 114)
  %81 = icmp ne i32 %80, 0
  br i1 %81, label %83, label %82

82:                                               ; preds = %77
  store i32 2, ptr %29, align 4
  br label %87

83:                                               ; preds = %77
  %84 = getelementptr inbounds [1 x %struct.curve448_scalar_s], ptr %25, i64 0, i64 0
  %85 = getelementptr inbounds [114 x i8], ptr %31, i64 0, i64 0
  call void @ossl_curve448_scalar_decode_long(ptr noundef %84, ptr noundef %85, i64 noundef 114)
  %86 = getelementptr inbounds [114 x i8], ptr %31, i64 0, i64 0
  call void @OPENSSL_cleanse(ptr noundef %86, i64 noundef 114)
  store i32 0, ptr %29, align 4
  br label %87

87:                                               ; preds = %82, %83
  call void @llvm.lifetime.end.p0(i64 114, ptr %31) #6
  %88 = load i32, ptr %29, align 4
  switch i32 %88, label %164 [
    i32 0, label %89
    i32 2, label %161
  ]

89:                                               ; preds = %87
  call void @llvm.lifetime.start.p0(i64 56, ptr %32) #6
  call void @llvm.lifetime.start.p0(i64 256, ptr %33) #6
  %90 = getelementptr inbounds [1 x %struct.curve448_scalar_s], ptr %32, i64 0, i64 0
  %91 = getelementptr inbounds [1 x %struct.curve448_scalar_s], ptr %25, i64 0, i64 0
  call void @ossl_curve448_scalar_halve(ptr noundef %90, ptr noundef %91)
  store i32 2, ptr %27, align 4, !tbaa !16
  br label %92

92:                                               ; preds = %98, %89
  %93 = load i32, ptr %27, align 4, !tbaa !16
  %94 = icmp ult i32 %93, 4
  br i1 %94, label %95, label %101

95:                                               ; preds = %92
  %96 = getelementptr inbounds [1 x %struct.curve448_scalar_s], ptr %32, i64 0, i64 0
  %97 = getelementptr inbounds [1 x %struct.curve448_scalar_s], ptr %32, i64 0, i64 0
  call void @ossl_curve448_scalar_halve(ptr noundef %96, ptr noundef %97)
  br label %98

98:                                               ; preds = %95
  %99 = load i32, ptr %27, align 4, !tbaa !16
  %100 = shl i32 %99, 1
  store i32 %100, ptr %27, align 4, !tbaa !16
  br label %92, !llvm.loop !23

101:                                              ; preds = %92
  %102 = getelementptr inbounds [1 x %struct.curve448_point_s], ptr %33, i64 0, i64 0
  %103 = load ptr, ptr @ossl_curve448_precomputed_base, align 8, !tbaa !20
  %104 = getelementptr inbounds [1 x %struct.curve448_scalar_s], ptr %32, i64 0, i64 0
  call void @ossl_curve448_precomputed_scalarmul(ptr noundef %102, ptr noundef %103, ptr noundef %104)
  %105 = getelementptr inbounds [57 x i8], ptr %26, i64 0, i64 0
  %106 = getelementptr inbounds [1 x %struct.curve448_point_s], ptr %33, i64 0, i64 0
  call void @ossl_curve448_point_mul_by_ratio_and_encode_like_eddsa(ptr noundef %105, ptr noundef %106)
  %107 = getelementptr inbounds [1 x %struct.curve448_point_s], ptr %33, i64 0, i64 0
  call void @ossl_curve448_point_destroy(ptr noundef %107)
  %108 = getelementptr inbounds [1 x %struct.curve448_scalar_s], ptr %32, i64 0, i64 0
  call void @ossl_curve448_scalar_destroy(ptr noundef %108)
  call void @llvm.lifetime.end.p0(i64 256, ptr %33) #6
  call void @llvm.lifetime.end.p0(i64 56, ptr %32) #6
  call void @llvm.lifetime.start.p0(i64 114, ptr %34) #6
  %109 = load ptr, ptr %12, align 8, !tbaa !3
  %110 = load ptr, ptr %23, align 8, !tbaa !12
  %111 = load i8, ptr %18, align 1, !tbaa !22
  %112 = load ptr, ptr %19, align 8, !tbaa !8
  %113 = load i64, ptr %20, align 8, !tbaa !10
  %114 = load ptr, ptr %21, align 8, !tbaa !8
  %115 = call i32 @hash_init_with_dom(ptr noundef %109, ptr noundef %110, i8 noundef zeroext %111, i8 noundef zeroext 0, ptr noundef %112, i64 noundef %113, ptr noundef %114)
  %116 = icmp ne i32 %115, 0
  br i1 %116, label %117, label %138

117:                                              ; preds = %101
  %118 = load ptr, ptr %23, align 8, !tbaa !12
  %119 = getelementptr inbounds [57 x i8], ptr %26, i64 0, i64 0
  %120 = call i32 @EVP_DigestUpdate(ptr noundef %118, ptr noundef %119, i64 noundef 57)
  %121 = icmp ne i32 %120, 0
  br i1 %121, label %122, label %138

122:                                              ; preds = %117
  %123 = load ptr, ptr %23, align 8, !tbaa !12
  %124 = load ptr, ptr %15, align 8, !tbaa !8
  %125 = call i32 @EVP_DigestUpdate(ptr noundef %123, ptr noundef %124, i64 noundef 57)
  %126 = icmp ne i32 %125, 0
  br i1 %126, label %127, label %138

127:                                              ; preds = %122
  %128 = load ptr, ptr %23, align 8, !tbaa !12
  %129 = load ptr, ptr %16, align 8, !tbaa !8
  %130 = load i64, ptr %17, align 8, !tbaa !10
  %131 = call i32 @EVP_DigestUpdate(ptr noundef %128, ptr noundef %129, i64 noundef %130)
  %132 = icmp ne i32 %131, 0
  br i1 %132, label %133, label %138

133:                                              ; preds = %127
  %134 = load ptr, ptr %23, align 8, !tbaa !12
  %135 = getelementptr inbounds [114 x i8], ptr %34, i64 0, i64 0
  %136 = call i32 @EVP_DigestFinalXOF(ptr noundef %134, ptr noundef %135, i64 noundef 114)
  %137 = icmp ne i32 %136, 0
  br i1 %137, label %139, label %138

138:                                              ; preds = %133, %127, %122, %117, %101
  store i32 2, ptr %29, align 4
  br label %143

139:                                              ; preds = %133
  %140 = getelementptr inbounds [1 x %struct.curve448_scalar_s], ptr %28, i64 0, i64 0
  %141 = getelementptr inbounds [114 x i8], ptr %34, i64 0, i64 0
  call void @ossl_curve448_scalar_decode_long(ptr noundef %140, ptr noundef %141, i64 noundef 114)
  %142 = getelementptr inbounds [114 x i8], ptr %34, i64 0, i64 0
  call void @OPENSSL_cleanse(ptr noundef %142, i64 noundef 114)
  store i32 0, ptr %29, align 4
  br label %143

143:                                              ; preds = %138, %139
  call void @llvm.lifetime.end.p0(i64 114, ptr %34) #6
  %144 = load i32, ptr %29, align 4
  switch i32 %144, label %164 [
    i32 0, label %145
    i32 2, label %161
  ]

145:                                              ; preds = %143
  %146 = getelementptr inbounds [1 x %struct.curve448_scalar_s], ptr %28, i64 0, i64 0
  %147 = getelementptr inbounds [1 x %struct.curve448_scalar_s], ptr %28, i64 0, i64 0
  %148 = getelementptr inbounds [1 x %struct.curve448_scalar_s], ptr %22, i64 0, i64 0
  call void @ossl_curve448_scalar_mul(ptr noundef %146, ptr noundef %147, ptr noundef %148)
  %149 = getelementptr inbounds [1 x %struct.curve448_scalar_s], ptr %28, i64 0, i64 0
  %150 = getelementptr inbounds [1 x %struct.curve448_scalar_s], ptr %28, i64 0, i64 0
  %151 = getelementptr inbounds [1 x %struct.curve448_scalar_s], ptr %25, i64 0, i64 0
  call void @ossl_curve448_scalar_add(ptr noundef %149, ptr noundef %150, ptr noundef %151)
  %152 = load ptr, ptr %13, align 8, !tbaa !8
  call void @OPENSSL_cleanse(ptr noundef %152, i64 noundef 114)
  %153 = load ptr, ptr %13, align 8, !tbaa !8
  %154 = getelementptr inbounds [57 x i8], ptr %26, i64 0, i64 0
  call void @llvm.memcpy.p0.p0.i64(ptr align 1 %153, ptr align 16 %154, i64 57, i1 false)
  %155 = load ptr, ptr %13, align 8, !tbaa !8
  %156 = getelementptr inbounds i8, ptr %155, i64 57
  %157 = getelementptr inbounds [1 x %struct.curve448_scalar_s], ptr %28, i64 0, i64 0
  call void @ossl_curve448_scalar_encode(ptr noundef %156, ptr noundef %157)
  %158 = getelementptr inbounds [1 x %struct.curve448_scalar_s], ptr %22, i64 0, i64 0
  call void @ossl_curve448_scalar_destroy(ptr noundef %158)
  %159 = getelementptr inbounds [1 x %struct.curve448_scalar_s], ptr %25, i64 0, i64 0
  call void @ossl_curve448_scalar_destroy(ptr noundef %159)
  %160 = getelementptr inbounds [1 x %struct.curve448_scalar_s], ptr %28, i64 0, i64 0
  call void @ossl_curve448_scalar_destroy(ptr noundef %160)
  store i32 -1, ptr %24, align 4, !tbaa !16
  br label %161

161:                                              ; preds = %145, %143, %87, %75
  %162 = load ptr, ptr %23, align 8, !tbaa !12
  call void @EVP_MD_CTX_free(ptr noundef %162)
  %163 = load i32, ptr %24, align 4, !tbaa !16
  store i32 %163, ptr %11, align 4
  store i32 1, ptr %29, align 4
  br label %164

164:                                              ; preds = %161, %143, %87, %75, %38
  call void @llvm.lifetime.end.p0(i64 56, ptr %28) #6
  call void @llvm.lifetime.end.p0(i64 4, ptr %27) #6
  call void @llvm.lifetime.end.p0(i64 57, ptr %26) #6
  call void @llvm.lifetime.end.p0(i64 56, ptr %25) #6
  call void @llvm.lifetime.end.p0(i64 4, ptr %24) #6
  call void @llvm.lifetime.end.p0(i64 8, ptr %23) #6
  call void @llvm.lifetime.end.p0(i64 56, ptr %22) #6
  %165 = load i32, ptr %11, align 4
  ret i32 %165
}