; Function Attrs: nounwind uwtable
define range(i32 -1, 1) i32 @ossl_c448_ed448_sign(ptr noundef %0, ptr noundef %1, ptr noundef %2, ptr noundef %3, ptr noundef %4, i64 noundef %5, i8 noundef zeroext %6, ptr noundef %7, i64 noundef %8, ptr noundef %9) local_unnamed_addr #0 {
  %11 = alloca [1 x %struct.curve448_scalar_s], align 16
  %12 = alloca [1 x %struct.curve448_scalar_s], align 16
  %13 = alloca [57 x i8], align 16
  %14 = alloca [1 x %struct.curve448_scalar_s], align 16
  %15 = alloca [114 x i8], align 16
  %16 = alloca [114 x i8], align 16
  %17 = alloca [1 x %struct.curve448_scalar_s], align 16
  %18 = alloca [1 x %struct.curve448_point_s], align 16
  %19 = alloca [114 x i8], align 16
  call void @llvm.lifetime.start.p0(i64 56, ptr nonnull %11) #5
  %20 = tail call ptr @EVP_MD_CTX_new() #5
  call void @llvm.lifetime.start.p0(i64 56, ptr nonnull %12) #5
  call void @llvm.lifetime.start.p0(i64 57, ptr nonnull %13) #5
  call void @llvm.memset.p0.i64(ptr noundef nonnull align 16 dereferenceable(57) %13, i8 0, i64 57, i1 false)
  call void @llvm.lifetime.start.p0(i64 56, ptr nonnull %14) #5
  %21 = icmp eq ptr %20, null
  br i1 %21, label %55, label %22

22:                                               ; preds = %10
  call void @llvm.lifetime.start.p0(i64 114, ptr nonnull %15) #5
  %23 = call fastcc i32 @oneshot_hash(ptr noundef %0, ptr noundef nonnull %15, i64 noundef 114, ptr noundef %2, ptr noundef %9)
  %.not = icmp eq i32 %23, 0
  br i1 %.not, label %.thread, label %24

24:                                               ; preds = %22
  %25 = load i8, ptr %15, align 16, !tbaa !3
  %26 = and i8 %25, -4
  store i8 %26, ptr %15, align 16, !tbaa !3
  %27 = getelementptr inbounds nuw i8, ptr %15, i64 56
  store i8 0, ptr %27, align 8, !tbaa !3
  %28 = getelementptr inbounds nuw i8, ptr %15, i64 55
  %29 = load i8, ptr %28, align 1, !tbaa !3
  %30 = or i8 %29, -128
  store i8 %30, ptr %28, align 1, !tbaa !3
  call void @ossl_curve448_scalar_decode_long(ptr noundef nonnull %11, ptr noundef nonnull %15, i64 noundef 57) #5
  %31 = call fastcc i32 @hash_init_with_dom(ptr noundef %0, ptr noundef %20, i8 noundef zeroext %6, ptr noundef %7, i64 noundef %8, ptr noundef %9)
  %.not42 = icmp eq i32 %31, 0
  br i1 %.not42, label %37, label %32

32:                                               ; preds = %24
  %33 = getelementptr inbounds nuw i8, ptr %15, i64 57
  %34 = call i32 @EVP_DigestUpdate(ptr noundef nonnull %20, ptr noundef nonnull %33, i64 noundef 57) #5
  %.not43 = icmp eq i32 %34, 0
  br i1 %.not43, label %37, label %35

35:                                               ; preds = %32
  %36 = call i32 @EVP_DigestUpdate(ptr noundef nonnull %20, ptr noundef %4, i64 noundef %5) #5
  %.not44 = icmp eq i32 %36, 0
  br i1 %.not44, label %37, label %38

37:                                               ; preds = %35, %32, %24
  call void @OPENSSL_cleanse(ptr noundef nonnull %15, i64 noundef 114) #5
  br label %.thread

.thread:                                          ; preds = %37, %22
  call void @llvm.lifetime.end.p0(i64 114, ptr nonnull %15) #5
  br label %54

38:                                               ; preds = %35
  call void @OPENSSL_cleanse(ptr noundef nonnull %15, i64 noundef 114) #5
  call void @llvm.lifetime.end.p0(i64 114, ptr nonnull %15) #5
  call void @llvm.lifetime.start.p0(i64 114, ptr nonnull %16) #5
  %39 = call i32 @EVP_DigestFinalXOF(ptr noundef nonnull %20, ptr noundef nonnull %16, i64 noundef 114) #5
  %.not45 = icmp eq i32 %39, 0
  br i1 %.not45, label %40, label %41

40:                                               ; preds = %38
  call void @llvm.lifetime.end.p0(i64 114, ptr nonnull %16) #5
  br label %54

41:                                               ; preds = %38
  call void @ossl_curve448_scalar_decode_long(ptr noundef nonnull %12, ptr noundef nonnull %16, i64 noundef 114) #5
  call void @OPENSSL_cleanse(ptr noundef nonnull %16, i64 noundef 114) #5
  call void @llvm.lifetime.end.p0(i64 114, ptr nonnull %16) #5
  call void @llvm.lifetime.start.p0(i64 56, ptr nonnull %17) #5
  call void @llvm.lifetime.start.p0(i64 256, ptr nonnull %18) #5
  call void @ossl_curve448_scalar_halve(ptr noundef nonnull %17, ptr noundef nonnull %12) #5
  call void @ossl_curve448_scalar_halve(ptr noundef nonnull %17, ptr noundef nonnull %17) #5
  %42 = load ptr, ptr @ossl_curve448_precomputed_base, align 8, !tbaa !8
  call void @ossl_curve448_precomputed_scalarmul(ptr noundef nonnull %18, ptr noundef %42, ptr noundef nonnull %17) #5
  call void @ossl_curve448_point_mul_by_ratio_and_encode_like_eddsa(ptr noundef nonnull %13, ptr noundef nonnull %18) #5
  call void @ossl_curve448_point_destroy(ptr noundef nonnull %18) #5
  call void @ossl_curve448_scalar_destroy(ptr noundef nonnull %17) #5
  call void @llvm.lifetime.end.p0(i64 256, ptr nonnull %18) #5
  call void @llvm.lifetime.end.p0(i64 56, ptr nonnull %17) #5
  call void @llvm.lifetime.start.p0(i64 114, ptr nonnull %19) #5
  %43 = call fastcc i32 @hash_init_with_dom(ptr noundef %0, ptr noundef %20, i8 noundef zeroext %6, ptr noundef %7, i64 noundef %8, ptr noundef %9)
  %.not46 = icmp eq i32 %43, 0
  br i1 %.not46, label %.thread64, label %44

44:                                               ; preds = %41
  %45 = call i32 @EVP_DigestUpdate(ptr noundef nonnull %20, ptr noundef nonnull %13, i64 noundef 57) #5
  %.not47 = icmp eq i32 %45, 0
  br i1 %.not47, label %.thread64, label %46

46:                                               ; preds = %44
  %47 = call i32 @EVP_DigestUpdate(ptr noundef nonnull %20, ptr noundef %3, i64 noundef 57) #5
  %.not48 = icmp eq i32 %47, 0
  br i1 %.not48, label %.thread64, label %48

48:                                               ; preds = %46
  %49 = call i32 @EVP_DigestUpdate(ptr noundef nonnull %20, ptr noundef %4, i64 noundef %5) #5
  %.not49 = icmp eq i32 %49, 0
  br i1 %.not49, label %.thread64, label %50

50:                                               ; preds = %48
  %51 = call i32 @EVP_DigestFinalXOF(ptr noundef nonnull %20, ptr noundef nonnull %19, i64 noundef 114) #5
  %.not50 = icmp eq i32 %51, 0
  br i1 %.not50, label %.thread64, label %52

.thread64:                                        ; preds = %50, %48, %46, %44, %41
  call void @llvm.lifetime.end.p0(i64 114, ptr nonnull %19) #5
  br label %54

52:                                               ; preds = %50
  call void @ossl_curve448_scalar_decode_long(ptr noundef nonnull %14, ptr noundef nonnull %19, i64 noundef 114) #5
  call void @OPENSSL_cleanse(ptr noundef nonnull %19, i64 noundef 114) #5
  call void @llvm.lifetime.end.p0(i64 114, ptr nonnull %19) #5
  call void @ossl_curve448_scalar_mul(ptr noundef nonnull %14, ptr noundef nonnull %14, ptr noundef nonnull %11) #5
  call void @ossl_curve448_scalar_add(ptr noundef nonnull %14, ptr noundef nonnull %14, ptr noundef nonnull %12) #5
  call void @OPENSSL_cleanse(ptr noundef %1, i64 noundef 114) #5
  call void @llvm.memcpy.p0.p0.i64(ptr noundef nonnull align 1 dereferenceable(57) %1, ptr noundef nonnull align 16 dereferenceable(57) %13, i64 57, i1 false)
  %53 = getelementptr inbounds nuw i8, ptr %1, i64 57
  call void @ossl_curve448_scalar_encode(ptr noundef nonnull %53, ptr noundef nonnull %14) #5
  call void @ossl_curve448_scalar_destroy(ptr noundef nonnull %11) #5
  call void @ossl_curve448_scalar_destroy(ptr noundef nonnull %12) #5
  call void @ossl_curve448_scalar_destroy(ptr noundef nonnull %14) #5
  br label %54

54:                                               ; preds = %.thread64, %40, %.thread, %52
  %.039 = phi i32 [ 0, %40 ], [ -1, %52 ], [ 0, %.thread ], [ 0, %.thread64 ]
  call void @EVP_MD_CTX_free(ptr noundef nonnull %20) #5
  br label %55

55:                                               ; preds = %10, %54
  %.040 = phi i32 [ %.039, %54 ], [ 0, %10 ]
  call void @llvm.lifetime.end.p0(i64 56, ptr nonnull %14) #5
  call void @llvm.lifetime.end.p0(i64 57, ptr nonnull %13) #5
  call void @llvm.lifetime.end.p0(i64 56, ptr nonnull %12) #5
  call void @llvm.lifetime.end.p0(i64 56, ptr nonnull %11) #5
  ret i32 %.040
}